; Function Attrs: mustprogress nofree norecurse nosync nounwind memory(readwrite, inaccessiblemem: none) uwtable
define hidden void @_ZN3mbp10term_graph11reset_marksEv(ptr noundef nonnull readonly align 8 captures(none) dereferenceable(244) %0) local_unnamed_addr #13 align 2 {
  %2 = getelementptr inbounds nuw i8, ptr %0, i64 8
  %3 = load ptr, ptr %2, align 8, !tbaa !45
  %4 = icmp eq ptr %3, null
  br i1 %4, label %._crit_edge, label %_ZN6vectorIPN3mbp4termELb0EjE3endEv.exit

_ZN6vectorIPN3mbp4termELb0EjE3endEv.exit:         ; preds = %1
  %5 = getelementptr inbounds i8, ptr %3, i64 -4
  %6 = load i32, ptr %5, align 4, !tbaa !34
  %7 = zext i32 %6 to i64
  %8 = getelementptr inbounds nuw ptr, ptr %3, i64 %7
  %.not8 = icmp eq i32 %6, 0
  br i1 %.not8, label %._crit_edge, label %.lr.ph

._crit_edge:                                      ; preds = %.lr.ph, %1, %_ZN6vectorIPN3mbp4termELb0EjE3endEv.exit
  ret void

.lr.ph:                                           ; preds = %_ZN6vectorIPN3mbp4termELb0EjE3endEv.exit, %.lr.ph
  %.09 = phi ptr [ %13, %.lr.ph ], [ %3, %_ZN6vectorIPN3mbp4termELb0EjE3endEv.exit ]
  %9 = load ptr, ptr %.09, align 8, !tbaa !46
  %10 = getelementptr inbounds nuw i8, ptr %9, i64 40
  %11 = load i16, ptr %10, align 8
  %12 = and i16 %11, -2
  store i16 %12, ptr %10, align 8
  %13 = getelementptr inbounds nuw i8, ptr %.09, i64 8
  %.not = icmp eq ptr %13, %8
  br i1 %.not, label %._crit_edge, label %.lr.ph
}